target datalayout = "e-m:e-p270:32:32-p271:32:32-p272:64:64-i64:64-i128:128-f80:128-n8:16:32:64-S128"
target triple = "x86_64-pc-linux-gnu"

; Function Attrs: nounwind ssp uwtable
define dso_local i32 @sodium_hex2bin(ptr noundef nonnull %0, i64 noundef %1, ptr noundef %2, i64 noundef %3, ptr noundef %4, ptr noundef %5, ptr noundef %6) #0 {
  %8 = alloca ptr, align 8
  %9 = alloca i64, align 8
  %10 = alloca ptr, align 8
  %11 = alloca i64, align 8
  %12 = alloca ptr, align 8
  %13 = alloca ptr, align 8
  %14 = alloca ptr, align 8
  %15 = alloca i64, align 8
  %16 = alloca i64, align 8
  %17 = alloca i32, align 4
  %18 = alloca i8, align 1
  %19 = alloca i8, align 1
  %20 = alloca i8, align 1
  %21 = alloca i8, align 1
  %22 = alloca i8, align 1
  %23 = alloca i8, align 1
  %24 = alloca i8, align 1
  %25 = alloca i8, align 1
  store ptr %0, ptr %8, align 8
  store i64 %1, ptr %9, align 8
  store ptr %2, ptr %10, align 8
  store i64 %3, ptr %11, align 8
  store ptr %4, ptr %12, align 8
  store ptr %5, ptr %13, align 8
  store ptr %6, ptr %14, align 8
  call void @llvm.lifetime.start.p0(i64 8, ptr %15) #5
  store i64 0, ptr %15, align 8
  call void @llvm.lifetime.start.p0(i64 8, ptr %16) #5
  store i64 0, ptr %16, align 8
  call void @llvm.lifetime.start.p0(i64 4, ptr %17) #5
  store i32 0, ptr %17, align 4
  call void @llvm.lifetime.start.p0(i64 1, ptr %18) #5
  call void @llvm.lifetime.start.p0(i64 1, ptr %19) #5
  store i8 0, ptr %19, align 1
  call void @llvm.lifetime.start.p0(i64 1, ptr %20) #5
  call void @llvm.lifetime.start.p0(i64 1, ptr %21) #5
  call void @llvm.lifetime.start.p0(i64 1, ptr %22) #5
  call void @llvm.lifetime.start.p0(i64 1, ptr %23) #5
  call void @llvm.lifetime.start.p0(i64 1, ptr %24) #5
  call void @llvm.lifetime.start.p0(i64 1, ptr %25) #5
  store i8 0, ptr %25, align 1
  br label %26

26:                                               ; preds = %119, %77, %7
  %27 = load i64, ptr %16, align 8
  %28 = load i64, ptr %11, align 8
  %29 = icmp ult i64 %27, %28
  br i1 %29, label %30, label %126

30:                                               ; preds = %26
  %31 = load ptr, ptr %10, align 8
  %32 = load i64, ptr %16, align 8
  %33 = getelementptr i8, ptr %31, i64 %32
  %34 = load i8, ptr %33, align 1
  store i8 %34, ptr %18, align 1
  %35 = load i8, ptr %18, align 1
  %36 = zext i8 %35 to i32
  %37 = xor i32 %36, 48
  %38 = trunc i32 %37 to i8
  store i8 %38, ptr %23, align 1
  %39 = load i8, ptr %23, align 1
  %40 = zext i8 %39 to i32
  %41 = sub i32 %40, 10
  %42 = lshr i32 %41, 8
  %43 = trunc i32 %42 to i8
  store i8 %43, ptr %22, align 1
  %44 = load i8, ptr %18, align 1
  %45 = zext i8 %44 to i32
  %46 = and i32 %45, -33
  %47 = sub i32 %46, 55
  %48 = trunc i32 %47 to i8
  store i8 %48, ptr %21, align 1
  %49 = load i8, ptr %21, align 1
  %50 = zext i8 %49 to i32
  %51 = sub i32 %50, 10
  %52 = load i8, ptr %21, align 1
  %53 = zext i8 %52 to i32
  %54 = sub i32 %53, 16
  %55 = xor i32 %51, %54
  %56 = lshr i32 %55, 8
  %57 = trunc i32 %56 to i8
  store i8 %57, ptr %20, align 1
  %58 = load i8, ptr %22, align 1
  %59 = zext i8 %58 to i32
  %60 = load i8, ptr %20, align 1
  %61 = zext i8 %60 to i32
  %62 = or i32 %59, %61
  %63 = icmp eq i32 %62, 0
  br i1 %63, label %64, label %81

64:                                               ; preds = %30
  %65 = load ptr, ptr %12, align 8
  %66 = icmp ne ptr %65, null
  br i1 %66, label %67, label %80

67:                                               ; preds = %64
  %68 = load i8, ptr %25, align 1
  %69 = zext i8 %68 to i32
  %70 = icmp eq i32 %69, 0
  br i1 %70, label %71, label %80

71:                                               ; preds = %67
  %72 = load ptr, ptr %12, align 8
  %73 = load i8, ptr %18, align 1
  %74 = zext i8 %73 to i32
  %75 = call ptr @strchr(ptr noundef %72, i32 noundef %74) #7
  %76 = icmp ne ptr %75, null
  br i1 %76, label %77, label %80

77:                                               ; preds = %71
  %78 = load i64, ptr %16, align 8
  %79 = add i64 %78, 1
  store i64 %79, ptr %16, align 8
  br label %26, !llvm.loop !6

80:                                               ; preds = %71, %67, %64
  br label %126

81:                                               ; preds = %30
  %82 = load i8, ptr %22, align 1
  %83 = zext i8 %82 to i32
  %84 = load i8, ptr %23, align 1
  %85 = zext i8 %84 to i32
  %86 = and i32 %83, %85
  %87 = load i8, ptr %20, align 1
  %88 = zext i8 %87 to i32
  %89 = load i8, ptr %21, align 1
  %90 = zext i8 %89 to i32
  %91 = and i32 %88, %90
  %92 = or i32 %86, %91
  %93 = trunc i32 %92 to i8
  store i8 %93, ptr %24, align 1
  %94 = load i64, ptr %15, align 8
  %95 = load i64, ptr %9, align 8
  %96 = icmp uge i64 %94, %95
  br i1 %96, label %97, label %99

97:                                               ; preds = %81
  store i32 -1, ptr %17, align 4
  %98 = call ptr @__errno_location() #8
  store i32 34, ptr %98, align 4
  br label %126

99:                                               ; preds = %81
  %100 = load i8, ptr %25, align 1
  %101 = zext i8 %100 to i32
  %102 = icmp eq i32 %101, 0
  br i1 %102, label %103, label %108

103:                                              ; preds = %99
  %104 = load i8, ptr %24, align 1
  %105 = zext i8 %104 to i32
  %106 = mul i32 %105, 16
  %107 = trunc i32 %106 to i8
  store i8 %107, ptr %19, align 1
  br label %119

108:                                              ; preds = %99
  %109 = load i8, ptr %19, align 1
  %110 = zext i8 %109 to i32
  %111 = load i8, ptr %24, align 1
  %112 = zext i8 %111 to i32
  %113 = or i32 %110, %112
  %114 = trunc i32 %113 to i8
  %115 = load ptr, ptr %8, align 8
  %116 = load i64, ptr %15, align 8
  %117 = add i64 %116, 1
  store i64 %117, ptr %15, align 8
  %118 = getelementptr i8, ptr %115, i64 %116
  store i8 %114, ptr %118, align 1
  br label %119

119:                                              ; preds = %108, %103
  %120 = load i8, ptr %25, align 1
  %121 = zext i8 %120 to i32
  %122 = xor i32 %121, -1
  %123 = trunc i32 %122 to i8
  store i8 %123, ptr %25, align 1
  %124 = load i64, ptr %16, align 8
  %125 = add i64 %124, 1
  store i64 %125, ptr %16, align 8
  br label %26, !llvm.loop !6

126:                                              ; preds = %97, %80, %26
  %127 = load i8, ptr %25, align 1
  %128 = zext i8 %127 to i32
  %129 = icmp ne i32 %128, 0
  br i1 %129, label %130, label %134

130:                                              ; preds = %126
  %131 = load i64, ptr %16, align 8
  %132 = add i64 %131, -1
  store i64 %132, ptr %16, align 8
  %133 = call ptr @__errno_location() #8
  store i32 22, ptr %133, align 4
  store i32 -1, ptr %17, align 4
  br label %134

134:                                              ; preds = %130, %126
  %135 = load i32, ptr %17, align 4
  %136 = icmp ne i32 %135, 0
  br i1 %136, label %137, label %138

137:                                              ; preds = %134
  store i64 0, ptr %15, align 8
  br label %138

138:                                              ; preds = %137, %134
  %139 = load ptr, ptr %14, align 8
  %140 = icmp ne ptr %139, null
  br i1 %140, label %141, label %146

141:                                              ; preds = %138
  %142 = load ptr, ptr %10, align 8
  %143 = load i64, ptr %16, align 8
  %144 = getelementptr i8, ptr %142, i64 %143
  %145 = load ptr, ptr %14, align 8
  store ptr %144, ptr %145, align 8
  br label %153

146:                                              ; preds = %138
  %147 = load i64, ptr %16, align 8
  %148 = load i64, ptr %11, align 8
  %149 = icmp ne i64 %147, %148
  br i1 %149, label %150, label %152

150:                                              ; preds = %146
  %151 = call ptr @__errno_location() #8
  store i32 22, ptr %151, align 4
  store i32 -1, ptr %17, align 4
  br label %152

152:                                              ; preds = %150, %146
  br label %153

153:                                              ; preds = %152, %141
  %154 = load ptr, ptr %13, align 8
  %155 = icmp ne ptr %154, null
  br i1 %155, label %156, label %159

156:                                              ; preds = %153
  %157 = load i64, ptr %15, align 8
  %158 = load ptr, ptr %13, align 8
  store i64 %157, ptr %158, align 8
  br label %159

159:                                              ; preds = %156, %153
  %160 = load i32, ptr %17, align 4
  call void @llvm.lifetime.end.p0(i64 1, ptr %25) #5
  call void @llvm.lifetime.end.p0(i64 1, ptr %24) #5
  call void @llvm.lifetime.end.p0(i64 1, ptr %23) #5
  call void @llvm.lifetime.end.p0(i64 1, ptr %22) #5
  call void @llvm.lifetime.end.p0(i64 1, ptr %21) #5
  call void @llvm.lifetime.end.p0(i64 1, ptr %20) #5
  call void @llvm.lifetime.end.p0(i64 1, ptr %19) #5
  call void @llvm.lifetime.end.p0(i64 1, ptr %18) #5
  call void @llvm.lifetime.end.p0(i64 4, ptr %17) #5
  call void @llvm.lifetime.end.p0(i64 8, ptr %16) #5
  call void @llvm.lifetime.end.p0(i64 8, ptr %15) #5
  ret i32 %160
}