; Function Attrs: nofree nounwind ssp memory(write, argmem: readwrite, inaccessiblemem: none) uwtable
define dso_local range(i32 -1, 1) i32 @sodium_hex2bin(ptr noundef nonnull writeonly captures(none) %0, i64 noundef %1, ptr noundef %2, i64 noundef %3, ptr noundef readonly %4, ptr noundef writeonly captures(address_is_null) %5, ptr noundef writeonly captures(address_is_null) %6) local_unnamed_addr #2 {
  %.not145 = icmp eq i64 %3, 0
  br i1 %.not145, label %.thread63.thread, label %.lr.ph.lr.ph

.lr.ph.lr.ph:                                     ; preds = %7
  %.not146 = icmp eq ptr %4, null
  br i1 %.not146, label %.lr.ph, label %.lr.ph.us

.lr.ph.us:                                        ; preds = %.lr.ph.lr.ph, %.outer.us
  %.0.ph120.us = phi i8 [ %37, %.outer.us ], [ 0, %.lr.ph.lr.ph ]
  %.044.ph119.us = phi i64 [ %.1.us, %.outer.us ], [ 0, %.lr.ph.lr.ph ]
  %.045.ph118.us = phi i64 [ %38, %.outer.us ], [ 0, %.lr.ph.lr.ph ]
  %.050.ph117.us = phi i8 [ %.151.us, %.outer.us ], [ 0, %.lr.ph.lr.ph ]
  br label %8

8:                                                ; preds = %.lr.ph.us, %44
  %.093.us = phi i8 [ %.0.ph120.us, %.lr.ph.us ], [ 0, %44 ]
  %.04592.us = phi i64 [ %.045.ph118.us, %.lr.ph.us ], [ %45, %44 ]
  %9 = getelementptr i8, ptr %2, i64 %.04592.us
  %10 = load i8, ptr %9, align 1
  %11 = zext i8 %10 to i32
  %12 = xor i8 %10, 48
  %13 = zext i8 %12 to i32
  %14 = add nuw nsw i32 %13, 65526
  %15 = lshr i32 %14, 8
  %16 = and i8 %10, -33
  %17 = add i8 %16, -55
  %18 = zext i8 %17 to i32
  %19 = add nuw nsw i32 %18, 65526
  %20 = add nuw nsw i32 %18, 65520
  %21 = xor i32 %19, %20
  %22 = lshr i32 %21, 8
  %23 = or i32 %22, %15
  %24 = and i32 %23, 255
  %25 = icmp eq i32 %24, 0
  br i1 %25, label %40, label %.split.us124

.split.us124:                                     ; preds = %8
  %.not.us = icmp ult i64 %.044.ph119.us, %1
  br i1 %.not.us, label %26, label %.split141.us

26:                                               ; preds = %.split.us124
  %27 = and i32 %22, %18
  %28 = and i32 %15, %13
  %29 = or i32 %27, %28
  %30 = icmp eq i8 %.093.us, 0
  %.tr.us = trunc nuw i32 %29 to i8
  br i1 %30, label %35, label %31

31:                                               ; preds = %26
  %32 = or i8 %.050.ph117.us, %.tr.us
  %33 = add nuw i64 %.044.ph119.us, 1
  %34 = getelementptr i8, ptr %0, i64 %.044.ph119.us
  store i8 %32, ptr %34, align 1
  br label %.outer.us

35:                                               ; preds = %26
  %36 = shl i8 %.tr.us, 4
  br label %.outer.us

.outer.us:                                        ; preds = %35, %31
  %.151.us = phi i8 [ %36, %35 ], [ %.050.ph117.us, %31 ]
  %.1.us = phi i64 [ %.044.ph119.us, %35 ], [ %33, %31 ]
  %37 = xor i8 %.093.us, -1
  %38 = add nuw i64 %.04592.us, 1
  %39 = icmp ult i64 %38, %3
  br i1 %39, label %.lr.ph.us, label %.loopexit, !llvm.loop !6

40:                                               ; preds = %8
  %41 = icmp eq i8 %.093.us, 0
  br i1 %41, label %42, label %.thread71

42:                                               ; preds = %40
  %43 = tail call ptr @strchr(ptr noundef nonnull dereferenceable(1) %4, i32 noundef %11) #8
  %.not55.us = icmp eq ptr %43, null
  br i1 %.not55.us, label %.thread63, label %44

44:                                               ; preds = %42
  %45 = add nuw i64 %.04592.us, 1
  %46 = icmp ult i64 %45, %3
  br i1 %46, label %8, label %.thread63.loopexit.split.loop.exit240, !llvm.loop !6

.lr.ph:                                           ; preds = %.lr.ph.lr.ph, %.outer
  %.0.ph120 = phi i8 [ %75, %.outer ], [ 0, %.lr.ph.lr.ph ]
  %.044.ph119 = phi i64 [ %.1, %.outer ], [ 0, %.lr.ph.lr.ph ]
  %.045.ph118 = phi i64 [ %76, %.outer ], [ 0, %.lr.ph.lr.ph ]
  %.050.ph117 = phi i8 [ %.151, %.outer ], [ 0, %.lr.ph.lr.ph ]
  %47 = getelementptr i8, ptr %2, i64 %.045.ph118
  %48 = load i8, ptr %47, align 1
  %49 = xor i8 %48, 48
  %50 = zext i8 %49 to i32
  %51 = add nuw nsw i32 %50, 65526
  %52 = lshr i32 %51, 8
  %53 = and i8 %48, -33
  %54 = add i8 %53, -55
  %55 = zext i8 %54 to i32
  %56 = add nuw nsw i32 %55, 65526
  %57 = add nuw nsw i32 %55, 65520
  %58 = xor i32 %56, %57
  %59 = lshr i32 %58, 8
  %60 = or i32 %59, %52
  %61 = and i32 %60, 255
  %62 = icmp eq i32 %61, 0
  br i1 %62, label %.loopexit, label %.split.us

.split.us:                                        ; preds = %.lr.ph
  %.not = icmp ult i64 %.044.ph119, %1
  br i1 %.not, label %64, label %.split141.us

.split141.us:                                     ; preds = %.split.us124, %.split.us
  %.us-phi142 = phi i64 [ %.044.ph119, %.split.us ], [ %.044.ph119.us, %.split.us124 ]
  %.us-phi143 = phi i64 [ %.045.ph118, %.split.us ], [ %.04592.us, %.split.us124 ]
  %.us-phi144 = phi i8 [ %.0.ph120, %.split.us ], [ %.093.us, %.split.us124 ]
  %63 = tail call ptr @__errno_location() #9
  store i32 34, ptr %63, align 4
  br label %.loopexit

64:                                               ; preds = %.split.us
  %65 = and i32 %59, %55
  %66 = and i32 %52, %50
  %67 = or i32 %65, %66
  %68 = icmp eq i8 %.0.ph120, 0
  %.tr = trunc nuw i32 %67 to i8
  br i1 %68, label %69, label %71

69:                                               ; preds = %64
  %70 = shl i8 %.tr, 4
  br label %.outer

71:                                               ; preds = %64
  %72 = or i8 %.050.ph117, %.tr
  %73 = add nuw i64 %.044.ph119, 1
  %74 = getelementptr i8, ptr %0, i64 %.044.ph119
  store i8 %72, ptr %74, align 1
  br label %.outer

.outer:                                           ; preds = %71, %69
  %.151 = phi i8 [ %70, %69 ], [ %.050.ph117, %71 ]
  %.1 = phi i64 [ %.044.ph119, %69 ], [ %73, %71 ]
  %75 = xor i8 %.0.ph120, -1
  %76 = add nuw i64 %.045.ph118, 1
  %exitcond.not = icmp eq i64 %76, %3
  br i1 %exitcond.not, label %.loopexit, label %.lr.ph, !llvm.loop !6

.loopexit:                                        ; preds = %.outer.us, %.outer, %.lr.ph, %.split141.us
  %.044.ph91 = phi i64 [ %.us-phi142, %.split141.us ], [ %.1, %.outer ], [ %.044.ph119, %.lr.ph ], [ %.1.us, %.outer.us ]
  %.04581 = phi i64 [ %.us-phi143, %.split141.us ], [ %3, %.outer ], [ %.045.ph118, %.lr.ph ], [ %38, %.outer.us ]
  %.078 = phi i8 [ %.us-phi144, %.split141.us ], [ %75, %.outer ], [ %.0.ph120, %.lr.ph ], [ %37, %.outer.us ]
  %.not57 = phi i1 [ false, %.split141.us ], [ true, %.lr.ph ], [ true, %.outer ], [ true, %.outer.us ]
  %.not56 = icmp eq i8 %.078, 0
  br i1 %.not56, label %79, label %.thread71

.thread71:                                        ; preds = %40, %.loopexit
  %.04581191 = phi i64 [ %.04581, %.loopexit ], [ %.04592.us, %40 ]
  %77 = add i64 %.04581191, -1
  %78 = tail call ptr @__errno_location() #9
  store i32 22, ptr %78, align 4
  br label %.thread63

79:                                               ; preds = %.loopexit
  %not..not57 = xor i1 %.not57, true
  %spec.select = sext i1 %not..not57 to i32
  %spec.select245 = select i1 %.not57, i64 %.044.ph91, i64 0
  br label %.thread63

.thread63.loopexit.split.loop.exit240:            ; preds = %44
  %80 = add nuw i64 %.045.ph118.us, 1
  %umax.le = tail call i64 @llvm.umax.i64(i64 %3, i64 %80)
  br label %.thread63

.thread63:                                        ; preds = %42, %79, %.thread63.loopexit.split.loop.exit240, %.thread71
  %.14669 = phi i64 [ %77, %.thread71 ], [ %.04581, %79 ], [ %umax.le, %.thread63.loopexit.split.loop.exit240 ], [ %.04592.us, %42 ]
  %.14867 = phi i32 [ -1, %.thread71 ], [ %spec.select, %79 ], [ 0, %.thread63.loopexit.split.loop.exit240 ], [ 0, %42 ]
  %81 = phi i64 [ 0, %.thread71 ], [ %spec.select245, %79 ], [ %.044.ph119.us, %.thread63.loopexit.split.loop.exit240 ], [ %.044.ph119.us, %42 ]
  %.not58 = icmp eq ptr %6, null
  br i1 %.not58, label %85, label %82

.thread63.thread:                                 ; preds = %7
  %.not58204 = icmp eq ptr %6, null
  br i1 %.not58204, label %.thread209, label %82

82:                                               ; preds = %.thread63.thread, %.thread63
  %83 = phi i64 [ 0, %.thread63.thread ], [ %81, %.thread63 ]
  %.14867207 = phi i32 [ 0, %.thread63.thread ], [ %.14867, %.thread63 ]
  %.14669205 = phi i64 [ 0, %.thread63.thread ], [ %.14669, %.thread63 ]
  %84 = getelementptr i8, ptr %2, i64 %.14669205
  store ptr %84, ptr %6, align 8
  br label %.thread209

85:                                               ; preds = %.thread63
  %.not59 = icmp eq i64 %.14669, %3
  br i1 %.not59, label %.thread209, label %86

86:                                               ; preds = %85
  %87 = tail call ptr @__errno_location() #9
  store i32 22, ptr %87, align 4
  br label %.thread209

.thread209:                                       ; preds = %.thread63.thread, %85, %86, %82
  %88 = phi i64 [ %83, %82 ], [ %81, %86 ], [ %81, %85 ], [ 0, %.thread63.thread ]
  %.249 = phi i32 [ %.14867207, %82 ], [ -1, %86 ], [ %.14867, %85 ], [ 0, %.thread63.thread ]
  %.not60 = icmp eq ptr %5, null
  br i1 %.not60, label %90, label %89

89:                                               ; preds = %.thread209
  store i64 %88, ptr %5, align 8
  br label %90

90:                                               ; preds = %89, %.thread209
  ret i32 %.249
}